target datalayout = "e-m:e-p270:32:32-p271:32:32-p272:64:64-i64:64-i128:128-f80:128-n8:16:32:64-S128"
target triple = "x86_64-pc-linux-gnu"

; Function Attrs: nounwind uwtable
define internal void @filter_dbl(ptr noundef %0, ptr noundef %1, i32 noundef %2, i32 noundef %3, float noundef %4) #0 {
  %6 = alloca ptr, align 8
  %7 = alloca ptr, align 8
  %8 = alloca i32, align 4
  %9 = alloca i32, align 4
  %10 = alloca float, align 4
  %11 = alloca ptr, align 8
  %12 = alloca ptr, align 8
  %13 = alloca i32, align 4
  %14 = alloca i32, align 4
  %15 = alloca double, align 8
  store ptr %0, ptr %6, align 8, !tbaa !50
  store ptr %1, ptr %7, align 8, !tbaa !50
  store i32 %2, ptr %8, align 4, !tbaa !51
  store i32 %3, ptr %9, align 4, !tbaa !51
  store float %4, ptr %10, align 4, !tbaa !52
  call void @llvm.lifetime.start.p0(i64 8, ptr %11) #4
  %16 = load ptr, ptr %7, align 8, !tbaa !50
  %17 = getelementptr inbounds ptr, ptr %16, i64 0
  %18 = load ptr, ptr %17, align 8, !tbaa !53
  store ptr %18, ptr %11, align 8, !tbaa !59
  call void @llvm.lifetime.start.p0(i64 8, ptr %12) #4
  %19 = load ptr, ptr %6, align 8, !tbaa !50
  %20 = getelementptr inbounds ptr, ptr %19, i64 0
  %21 = load ptr, ptr %20, align 8, !tbaa !53
  store ptr %21, ptr %12, align 8, !tbaa !59
  call void @llvm.lifetime.start.p0(i64 4, ptr %13) #4
  call void @llvm.lifetime.start.p0(i64 4, ptr %14) #4
  store i32 0, ptr %13, align 4, !tbaa !51
  br label %22

22:                                               ; preds = %62, %5
  %23 = load i32, ptr %13, align 4, !tbaa !51
  %24 = load i32, ptr %8, align 4, !tbaa !51
  %25 = icmp slt i32 %23, %24
  br i1 %25, label %26, label %65

26:                                               ; preds = %22
  store i32 0, ptr %14, align 4, !tbaa !51
  br label %27

27:                                               ; preds = %50, %26
  %28 = load i32, ptr %14, align 4, !tbaa !51
  %29 = load i32, ptr %9, align 4, !tbaa !51
  %30 = icmp slt i32 %28, %29
  br i1 %30, label %31, label %53

31:                                               ; preds = %27
  call void @llvm.lifetime.start.p0(i64 8, ptr %15) #4
  %32 = load ptr, ptr %11, align 8, !tbaa !59
  %33 = load i32, ptr %14, align 4, !tbaa !51
  %34 = sext i32 %33 to i64
  %35 = getelementptr inbounds double, ptr %32, i64 %34
  %36 = load double, ptr %35, align 8, !tbaa !60
  %37 = fmul nsz double %36, 0x3FF921FB54442D18
  store double %37, ptr %15, align 8, !tbaa !60
  %38 = load double, ptr %15, align 8, !tbaa !60
  %39 = load float, ptr %10, align 4, !tbaa !52
  %40 = fpext nsz float %39 to double
  %41 = load double, ptr %15, align 8, !tbaa !60
  %42 = fmul nsz double %41, 4.000000e+00
  %43 = call nsz double @llvm.sin.f64(double %42)
  %44 = call nsz double @llvm.fmuladd.f64(double %40, double %43, double %38)
  %45 = call nsz double @llvm.sin.f64(double %44)
  %46 = load ptr, ptr %12, align 8, !tbaa !59
  %47 = load i32, ptr %14, align 4, !tbaa !51
  %48 = sext i32 %47 to i64
  %49 = getelementptr inbounds double, ptr %46, i64 %48
  store double %45, ptr %49, align 8, !tbaa !60
  call void @llvm.lifetime.end.p0(i64 8, ptr %15) #4
  br label %50

50:                                               ; preds = %31
  %51 = load i32, ptr %14, align 4, !tbaa !51
  %52 = add nsw i32 %51, 1
  store i32 %52, ptr %14, align 4, !tbaa !51
  br label %27, !llvm.loop !62

53:                                               ; preds = %27
  %54 = load i32, ptr %14, align 4, !tbaa !51
  %55 = load ptr, ptr %12, align 8, !tbaa !59
  %56 = sext i32 %54 to i64
  %57 = getelementptr inbounds double, ptr %55, i64 %56
  store ptr %57, ptr %12, align 8, !tbaa !59
  %58 = load i32, ptr %14, align 4, !tbaa !51
  %59 = load ptr, ptr %11, align 8, !tbaa !59
  %60 = sext i32 %58 to i64
  %61 = getelementptr inbounds double, ptr %59, i64 %60
  store ptr %61, ptr %11, align 8, !tbaa !59
  br label %62

62:                                               ; preds = %53
  %63 = load i32, ptr %13, align 4, !tbaa !51
  %64 = add nsw i32 %63, 1
  store i32 %64, ptr %13, align 4, !tbaa !51
  br label %22, !llvm.loop !63

65:                                               ; preds = %22
  call void @llvm.lifetime.end.p0(i64 4, ptr %14) #4
  call void @llvm.lifetime.end.p0(i64 4, ptr %13) #4
  call void @llvm.lifetime.end.p0(i64 8, ptr %12) #4
  call void @llvm.lifetime.end.p0(i64 8, ptr %11) #4
  ret void
}