; Function Attrs: nofree norecurse nosync nounwind memory(readwrite, inaccessiblemem: none) uwtable
define internal void @filter_dbl(ptr noundef readonly captures(none) %0, ptr noundef readonly captures(none) %1, i32 noundef %2, i32 noundef %3, float noundef %4) #3 {
  %6 = icmp sgt i32 %2, 0
  br i1 %6, label %.preheader.lr.ph, label %._crit_edge25

.preheader.lr.ph:                                 ; preds = %5
  %7 = icmp sgt i32 %3, 0
  %8 = fpext nsz float %4 to double
  br i1 %7, label %.preheader.us.preheader, label %._crit_edge25

.preheader.us.preheader:                          ; preds = %.preheader.lr.ph
  %9 = load ptr, ptr %1, align 8, !tbaa !47
  %10 = load ptr, ptr %0, align 8, !tbaa !47
  %wide.trip.count = zext nneg i32 %3 to i64
  br label %.preheader.us

.preheader.us:                                    ; preds = %.preheader.us.preheader, %._crit_edge.us
  %.024.us = phi ptr [ %21, %._crit_edge.us ], [ %9, %.preheader.us.preheader ]
  %.01923.us = phi i32 [ %22, %._crit_edge.us ], [ 0, %.preheader.us.preheader ]
  %.02022.us = phi ptr [ %20, %._crit_edge.us ], [ %10, %.preheader.us.preheader ]
  br label %11

11:                                               ; preds = %.preheader.us, %11
  %indvars.iv = phi i64 [ 0, %.preheader.us ], [ %indvars.iv.next, %11 ]
  %12 = getelementptr inbounds nuw double, ptr %.024.us, i64 %indvars.iv
  %13 = load double, ptr %12, align 8, !tbaa !52
  %14 = fmul nsz double %13, 0x3FF921FB54442D18
  %15 = fmul nsz double %14, 4.000000e+00
  %16 = tail call nsz double @llvm.sin.f64(double %15)
  %17 = tail call nsz double @llvm.fmuladd.f64(double %8, double %16, double %14)
  %18 = tail call nsz double @llvm.sin.f64(double %17)
  %19 = getelementptr inbounds nuw double, ptr %.02022.us, i64 %indvars.iv
  store double %18, ptr %19, align 8, !tbaa !52
  %indvars.iv.next = add nuw nsw i64 %indvars.iv, 1
  %exitcond.not = icmp eq i64 %indvars.iv.next, %wide.trip.count
  br i1 %exitcond.not, label %._crit_edge.us, label %11, !llvm.loop !54

._crit_edge.us:                                   ; preds = %11
  %20 = getelementptr inbounds nuw double, ptr %.02022.us, i64 %wide.trip.count
  %21 = getelementptr inbounds nuw double, ptr %.024.us, i64 %wide.trip.count
  %22 = add nuw nsw i32 %.01923.us, 1
  %exitcond28.not = icmp eq i32 %22, %2
  br i1 %exitcond28.not, label %._crit_edge25, label %.preheader.us, !llvm.loop !55

._crit_edge25:                                    ; preds = %._crit_edge.us, %.preheader.lr.ph, %5
  ret void
}